target datalayout = "e-m:e-p270:32:32-p271:32:32-p272:64:64-i64:64-i128:128-f80:128-n8:16:32:64-S128"
target triple = "x86_64-pc-linux-gnu"

%struct.darktable_t = type { %struct.dt_codepath_t, i32, i32, ptr, ptr, ptr, ptr, ptr, ptr, ptr, ptr, ptr, ptr, ptr, ptr, ptr, ptr, ptr, ptr, ptr, ptr, ptr, ptr, ptr, ptr, ptr, ptr, ptr, ptr, ptr, [64 x %struct.dt_pthread_mutex_t], %struct.dt_pthread_mutex_t, %struct.dt_pthread_mutex_t, %struct.dt_pthread_mutex_t, %struct.dt_pthread_mutex_t, %struct.dt_pthread_mutex_t, ptr, ptr, ptr, ptr, ptr, ptr, ptr, ptr, ptr, ptr, ptr, ptr, ptr, %struct.dt_lua_state_t, ptr, double, ptr, i32, [47 x i32], i32, i32, ptr, ptr, %struct.dt_sys_resources_t, %struct.dt_backthumb_t, %struct.dt_gimp_t }
%struct.dt_codepath_t = type { i8, [3 x i8] }
%struct.dt_pthread_mutex_t = type { %union.pthread_mutex_t }
%union.pthread_mutex_t = type { %struct.__pthread_mutex_s }
%struct.__pthread_mutex_s = type { i32, i32, i32, i32, i32, i16, i16, %struct.__pthread_internal_list }
%struct.__pthread_internal_list = type { ptr, ptr }
%struct.dt_lua_state_t = type { i32 }
%struct.dt_sys_resources_t = type { i64, i64, ptr, ptr, i32 }
%struct.dt_backthumb_t = type { double, double, i32, i32, i32, i32 }
%struct.dt_gimp_t = type { i32, ptr, ptr, i32, i32 }
%struct.dt_masks_form_t = type { ptr, i32, ptr, [2 x float], [128 x i8], i32, i32 }
%struct.dt_masks_point_group_t = type { i32, i32, i32, float }
%struct.dt_masks_functions_t = type { i32, ptr, ptr, ptr, ptr, ptr, ptr, ptr, ptr, ptr, ptr, ptr, ptr, ptr, ptr, ptr, ptr, ptr, ptr, ptr }
%struct.dt_masks_form_gui_t = type { ptr, ptr, ptr, i32, float, float, float, float, float, float, float, float, i32, i32, i32, i32, i32, i32, i32, i32, i32, i32, i32, i32, i32, i32, i32, i32, i32, i32, i32, i32, i32, i32, float, float, i32, i32, i32, i32, i32, i32, ptr, ptr, i32, i32, i64 }

@darktable = external global %struct.darktable_t, align 8

; Function Attrs: nounwind uwtable
define internal i32 @_group_events_button_pressed(ptr noundef %0, float noundef %1, float noundef %2, double noundef %3, i32 noundef %4, i32 noundef %5, i32 noundef %6, ptr noundef %7, i32 noundef %8, ptr noundef %9, i32 noundef %10) #0 {
  %12 = alloca i32, align 4
  %13 = alloca ptr, align 8
  %14 = alloca float, align 4
  %15 = alloca float, align 4
  %16 = alloca double, align 8
  %17 = alloca i32, align 4
  %18 = alloca i32, align 4
  %19 = alloca i32, align 4
  %20 = alloca ptr, align 8
  %21 = alloca i32, align 4
  %22 = alloca ptr, align 8
  %23 = alloca i32, align 4
  %24 = alloca ptr, align 8
  %25 = alloca ptr, align 8
  %26 = alloca i32, align 4
  store ptr %0, ptr %13, align 8, !tbaa !71
  store float %1, ptr %14, align 4, !tbaa !11
  store float %2, ptr %15, align 4, !tbaa !11
  store double %3, ptr %16, align 8, !tbaa !79
  store i32 %4, ptr %17, align 4, !tbaa !17
  store i32 %5, ptr %18, align 4, !tbaa !17
  store i32 %6, ptr %19, align 4, !tbaa !17
  store ptr %7, ptr %20, align 8, !tbaa !13
  store i32 %8, ptr %21, align 4, !tbaa !17
  store ptr %9, ptr %22, align 8, !tbaa !15
  store i32 %10, ptr %23, align 4, !tbaa !17
  %27 = load ptr, ptr %22, align 8, !tbaa !15
  %28 = getelementptr inbounds nuw %struct.dt_masks_form_gui_t, ptr %27, i32 0, i32 36
  %29 = load i32, ptr %28, align 4, !tbaa !117
  %30 = load ptr, ptr %22, align 8, !tbaa !15
  %31 = getelementptr inbounds nuw %struct.dt_masks_form_gui_t, ptr %30, i32 0, i32 37
  %32 = load i32, ptr %31, align 8, !tbaa !129
  %33 = icmp ne i32 %29, %32
  br i1 %33, label %34, label %70

34:                                               ; preds = %11
  %35 = load ptr, ptr %22, align 8, !tbaa !15
  %36 = getelementptr inbounds nuw %struct.dt_masks_form_gui_t, ptr %35, i32 0, i32 37
  %37 = load i32, ptr %36, align 8, !tbaa !129
  %38 = load ptr, ptr %22, align 8, !tbaa !15
  %39 = getelementptr inbounds nuw %struct.dt_masks_form_gui_t, ptr %38, i32 0, i32 36
  store i32 %37, ptr %39, align 4, !tbaa !117
  %40 = load ptr, ptr %22, align 8, !tbaa !15
  %41 = getelementptr inbounds nuw %struct.dt_masks_form_gui_t, ptr %40, i32 0, i32 7
  store float 0.000000e+00, ptr %41, align 8, !tbaa !132
  %42 = load ptr, ptr %22, align 8, !tbaa !15
  %43 = getelementptr inbounds nuw %struct.dt_masks_form_gui_t, ptr %42, i32 0, i32 6
  store float 0.000000e+00, ptr %43, align 4, !tbaa !133
  %44 = load ptr, ptr %22, align 8, !tbaa !15
  %45 = getelementptr inbounds nuw %struct.dt_masks_form_gui_t, ptr %44, i32 0, i32 12
  store i32 0, ptr %45, align 4, !tbaa !121
  %46 = load ptr, ptr %22, align 8, !tbaa !15
  %47 = getelementptr inbounds nuw %struct.dt_masks_form_gui_t, ptr %46, i32 0, i32 13
  store i32 0, ptr %47, align 8, !tbaa !120
  %48 = load ptr, ptr %22, align 8, !tbaa !15
  %49 = getelementptr inbounds nuw %struct.dt_masks_form_gui_t, ptr %48, i32 0, i32 24
  store i32 0, ptr %49, align 4, !tbaa !134
  %50 = load ptr, ptr %22, align 8, !tbaa !15
  %51 = getelementptr inbounds nuw %struct.dt_masks_form_gui_t, ptr %50, i32 0, i32 26
  store i32 0, ptr %51, align 4, !tbaa !135
  %52 = load ptr, ptr %22, align 8, !tbaa !15
  %53 = getelementptr inbounds nuw %struct.dt_masks_form_gui_t, ptr %52, i32 0, i32 15
  store i32 0, ptr %53, align 8, !tbaa !124
  %54 = load ptr, ptr %22, align 8, !tbaa !15
  %55 = getelementptr inbounds nuw %struct.dt_masks_form_gui_t, ptr %54, i32 0, i32 22
  store i32 -1, ptr %55, align 4, !tbaa !128
  %56 = load ptr, ptr %22, align 8, !tbaa !15
  %57 = getelementptr inbounds nuw %struct.dt_masks_form_gui_t, ptr %56, i32 0, i32 21
  store i32 -1, ptr %57, align 8, !tbaa !127
  %58 = load ptr, ptr %22, align 8, !tbaa !15
  %59 = getelementptr inbounds nuw %struct.dt_masks_form_gui_t, ptr %58, i32 0, i32 17
  store i32 -1, ptr %59, align 8, !tbaa !126
  %60 = load ptr, ptr %22, align 8, !tbaa !15
  %61 = getelementptr inbounds nuw %struct.dt_masks_form_gui_t, ptr %60, i32 0, i32 19
  store i32 -1, ptr %61, align 8, !tbaa !125
  %62 = load ptr, ptr %22, align 8, !tbaa !15
  %63 = getelementptr inbounds nuw %struct.dt_masks_form_gui_t, ptr %62, i32 0, i32 32
  store i32 -1, ptr %63, align 4, !tbaa !136
  %64 = load ptr, ptr %22, align 8, !tbaa !15
  %65 = getelementptr inbounds nuw %struct.dt_masks_form_gui_t, ptr %64, i32 0, i32 31
  store i32 -1, ptr %65, align 8, !tbaa !137
  %66 = load ptr, ptr %22, align 8, !tbaa !15
  %67 = getelementptr inbounds nuw %struct.dt_masks_form_gui_t, ptr %66, i32 0, i32 30
  store i32 -1, ptr %67, align 4, !tbaa !138
  %68 = load ptr, ptr %22, align 8, !tbaa !15
  %69 = getelementptr inbounds nuw %struct.dt_masks_form_gui_t, ptr %68, i32 0, i32 29
  store i32 -1, ptr %69, align 8, !tbaa !139
  call void (...) @dt_control_queue_redraw_center()
  store i32 1, ptr %12, align 4
  br label %123

70:                                               ; preds = %11
  %71 = load ptr, ptr %22, align 8, !tbaa !15
  %72 = getelementptr inbounds nuw %struct.dt_masks_form_gui_t, ptr %71, i32 0, i32 36
  %73 = load i32, ptr %72, align 4, !tbaa !117
  %74 = icmp sge i32 %73, 0
  br i1 %74, label %75, label %122

75:                                               ; preds = %70
  call void @llvm.lifetime.start.p0(i64 8, ptr %24) #10
  %76 = load ptr, ptr %20, align 8, !tbaa !13
  %77 = getelementptr inbounds nuw %struct.dt_masks_form_t, ptr %76, i32 0, i32 0
  %78 = load ptr, ptr %77, align 8, !tbaa !19
  %79 = load ptr, ptr %22, align 8, !tbaa !15
  %80 = getelementptr inbounds nuw %struct.dt_masks_form_gui_t, ptr %79, i32 0, i32 36
  %81 = load i32, ptr %80, align 4, !tbaa !117
  %82 = call ptr @g_list_nth_data(ptr noundef %78, i32 noundef %81)
  store ptr %82, ptr %24, align 8, !tbaa !26
  call void @llvm.lifetime.start.p0(i64 8, ptr %25) #10
  %83 = load ptr, ptr getelementptr inbounds nuw (%struct.darktable_t, ptr @darktable, i32 0, i32 9), align 8, !tbaa !28
  %84 = load ptr, ptr %24, align 8, !tbaa !26
  %85 = getelementptr inbounds nuw %struct.dt_masks_point_group_t, ptr %84, i32 0, i32 0
  %86 = load i32, ptr %85, align 4, !tbaa !65
  %87 = call ptr @dt_masks_get_from_id(ptr noundef %83, i32 noundef %86)
  store ptr %87, ptr %25, align 8, !tbaa !13
  %88 = load ptr, ptr %25, align 8, !tbaa !13
  %89 = icmp ne ptr %88, null
  br i1 %89, label %91, label %90

90:                                               ; preds = %75
  store i32 0, ptr %12, align 4
  store i32 1, ptr %26, align 4
  br label %119

91:                                               ; preds = %75
  %92 = load ptr, ptr %25, align 8, !tbaa !13
  %93 = getelementptr inbounds nuw %struct.dt_masks_form_t, ptr %92, i32 0, i32 2
  %94 = load ptr, ptr %93, align 8, !tbaa !67
  %95 = icmp ne ptr %94, null
  br i1 %95, label %96, label %118

96:                                               ; preds = %91
  %97 = load ptr, ptr %25, align 8, !tbaa !13
  %98 = getelementptr inbounds nuw %struct.dt_masks_form_t, ptr %97, i32 0, i32 2
  %99 = load ptr, ptr %98, align 8, !tbaa !67
  %100 = getelementptr inbounds nuw %struct.dt_masks_functions_t, ptr %99, i32 0, i32 17
  %101 = load ptr, ptr %100, align 8, !tbaa !140
  %102 = load ptr, ptr %13, align 8, !tbaa !71
  %103 = load float, ptr %14, align 4, !tbaa !11
  %104 = load float, ptr %15, align 4, !tbaa !11
  %105 = load double, ptr %16, align 8, !tbaa !79
  %106 = load i32, ptr %17, align 4, !tbaa !17
  %107 = load i32, ptr %18, align 4, !tbaa !17
  %108 = load i32, ptr %19, align 4, !tbaa !17
  %109 = load ptr, ptr %25, align 8, !tbaa !13
  %110 = load ptr, ptr %24, align 8, !tbaa !26
  %111 = getelementptr inbounds nuw %struct.dt_masks_point_group_t, ptr %110, i32 0, i32 1
  %112 = load i32, ptr %111, align 4, !tbaa !90
  %113 = load ptr, ptr %22, align 8, !tbaa !15
  %114 = load ptr, ptr %22, align 8, !tbaa !15
  %115 = getelementptr inbounds nuw %struct.dt_masks_form_gui_t, ptr %114, i32 0, i32 36
  %116 = load i32, ptr %115, align 4, !tbaa !117
  %117 = call i32 %101(ptr noundef %102, float noundef %103, float noundef %104, double noundef %105, i32 noundef %106, i32 noundef %107, i32 noundef %108, ptr noundef %109, i32 noundef %112, ptr noundef %113, i32 noundef %116)
  store i32 %117, ptr %12, align 4
  store i32 1, ptr %26, align 4
  br label %119

118:                                              ; preds = %91
  store i32 0, ptr %26, align 4
  br label %119

119:                                              ; preds = %118, %96, %90
  call void @llvm.lifetime.end.p0(i64 8, ptr %25) #10
  call void @llvm.lifetime.end.p0(i64 8, ptr %24) #10
  %120 = load i32, ptr %26, align 4
  switch i32 %120, label %125 [
    i32 0, label %121
    i32 1, label %123
  ]

121:                                              ; preds = %119
  br label %122

122:                                              ; preds = %121, %70
  store i32 0, ptr %12, align 4
  br label %123

123:                                              ; preds = %122, %119, %34
  %124 = load i32, ptr %12, align 4
  ret i32 %124

125:                                              ; preds = %119
  unreachable
}