; Function Attrs: nounwind uwtable
define internal i32 @_group_events_button_pressed(ptr noundef %0, float noundef %1, float noundef %2, double noundef %3, i32 noundef %4, i32 noundef %5, i32 noundef %6, ptr noundef readonly captures(none) %7, i32 %8, ptr noundef %9, i32 %10) #0 {
  %12 = getelementptr inbounds nuw i8, ptr %9, i64 156
  %13 = load i32, ptr %12, align 4, !tbaa !138
  %14 = getelementptr inbounds nuw i8, ptr %9, i64 160
  %15 = load i32, ptr %14, align 8, !tbaa !153
  %.not = icmp eq i32 %13, %15
  br i1 %.not, label %29, label %16

16:                                               ; preds = %11
  store i32 %15, ptr %12, align 4, !tbaa !138
  %17 = getelementptr inbounds nuw i8, ptr %9, i64 40
  store float 0.000000e+00, ptr %17, align 8, !tbaa !186
  %18 = getelementptr inbounds nuw i8, ptr %9, i64 36
  store float 0.000000e+00, ptr %18, align 4, !tbaa !187
  %19 = getelementptr inbounds nuw i8, ptr %9, i64 60
  store i32 0, ptr %19, align 4, !tbaa !188
  %20 = getelementptr inbounds nuw i8, ptr %9, i64 64
  store i32 0, ptr %20, align 8, !tbaa !189
  %21 = getelementptr inbounds nuw i8, ptr %9, i64 108
  store i32 0, ptr %21, align 4, !tbaa !139
  %22 = getelementptr inbounds nuw i8, ptr %9, i64 116
  store i32 0, ptr %22, align 4, !tbaa !142
  %23 = getelementptr inbounds nuw i8, ptr %9, i64 72
  store i32 0, ptr %23, align 8, !tbaa !190
  %24 = getelementptr inbounds nuw i8, ptr %9, i64 100
  store i32 -1, ptr %24, align 4, !tbaa !152
  %25 = getelementptr inbounds nuw i8, ptr %9, i64 96
  store i32 -1, ptr %25, align 8, !tbaa !151
  %26 = getelementptr inbounds nuw i8, ptr %9, i64 80
  store i32 -1, ptr %26, align 8, !tbaa !150
  %27 = getelementptr inbounds nuw i8, ptr %9, i64 88
  store i32 -1, ptr %27, align 8, !tbaa !149
  %28 = getelementptr inbounds nuw i8, ptr %9, i64 128
  tail call void @llvm.memset.p0.i64(ptr noundef nonnull align 8 dereferenceable(16) %28, i8 -1, i64 16, i1 false)
  tail call void (...) @dt_control_queue_redraw_center() #12
  br label %.thread

29:                                               ; preds = %11
  %30 = icmp sgt i32 %13, -1
  br i1 %30, label %31, label %.thread

31:                                               ; preds = %29
  %32 = load ptr, ptr %7, align 8, !tbaa !59
  %33 = tail call ptr @g_list_nth_data(ptr noundef %32, i32 noundef %13) #12
  %34 = load ptr, ptr getelementptr inbounds nuw (i8, ptr @darktable, i64 64), align 8, !tbaa !13
  %35 = load i32, ptr %33, align 4, !tbaa !51
  %36 = tail call ptr @dt_masks_get_from_id(ptr noundef %34, i32 noundef %35) #12
  %.not43 = icmp eq ptr %36, null
  br i1 %.not43, label %.thread, label %37

37:                                               ; preds = %31
  %38 = getelementptr inbounds nuw i8, ptr %36, i64 16
  %39 = load ptr, ptr %38, align 8, !tbaa !54
  %.not44 = icmp eq ptr %39, null
  br i1 %.not44, label %.thread, label %40

40:                                               ; preds = %37
  %41 = getelementptr inbounds nuw i8, ptr %39, i64 136
  %42 = load ptr, ptr %41, align 8, !tbaa !191
  %43 = getelementptr inbounds nuw i8, ptr %33, i64 4
  %44 = load i32, ptr %43, align 4, !tbaa !68
  %45 = load i32, ptr %12, align 4, !tbaa !138
  %46 = tail call i32 %42(ptr noundef %0, float noundef %1, float noundef %2, double noundef %3, i32 noundef %4, i32 noundef %5, i32 noundef %6, ptr noundef nonnull %36, i32 noundef %44, ptr noundef nonnull %9, i32 noundef %45) #12
  br label %.thread

.thread:                                          ; preds = %31, %40, %29, %37, %16
  %.038 = phi i32 [ 1, %16 ], [ 0, %37 ], [ 0, %29 ], [ 0, %31 ], [ %46, %40 ]
  ret i32 %.038
}